target datalayout = "e-m:e-p270:32:32-p271:32:32-p272:64:64-i64:64-i128:128-f80:128-n8:16:32:64-S128"
target triple = "x86_64-pc-linux-gnu"

%struct.JNINativeInterface_ = type { ptr, ptr, ptr, ptr, ptr, ptr, ptr, ptr, ptr, ptr, ptr, ptr, ptr, ptr, ptr, ptr, ptr, ptr, ptr, ptr, ptr, ptr, ptr, ptr, ptr, ptr, ptr, ptr, ptr, ptr, ptr, ptr, ptr, ptr, ptr, ptr, ptr, ptr, ptr, ptr, ptr, ptr, ptr, ptr, ptr, ptr, ptr, ptr, ptr, ptr, ptr, ptr, ptr, ptr, ptr, ptr, ptr, ptr, ptr, ptr, ptr, ptr, ptr, ptr, ptr, ptr, ptr, ptr, ptr, ptr, ptr, ptr, ptr, ptr, ptr, ptr, ptr, ptr, ptr, ptr, ptr, ptr, ptr, ptr, ptr, ptr, ptr, ptr, ptr, ptr, ptr, ptr, ptr, ptr, ptr, ptr, ptr, ptr, ptr, ptr, ptr, ptr, ptr, ptr, ptr, ptr, ptr, ptr, ptr, ptr, ptr, ptr, ptr, ptr, ptr, ptr, ptr, ptr, ptr, ptr, ptr, ptr, ptr, ptr, ptr, ptr, ptr, ptr, ptr, ptr, ptr, ptr, ptr, ptr, ptr, ptr, ptr, ptr, ptr, ptr, ptr, ptr, ptr, ptr, ptr, ptr, ptr, ptr, ptr, ptr, ptr, ptr, ptr, ptr, ptr, ptr, ptr, ptr, ptr, ptr, ptr, ptr, ptr, ptr, ptr, ptr, ptr, ptr, ptr, ptr, ptr, ptr, ptr, ptr, ptr, ptr, ptr, ptr, ptr, ptr, ptr, ptr, ptr, ptr, ptr, ptr, ptr, ptr, ptr, ptr, ptr, ptr, ptr, ptr, ptr, ptr, ptr, ptr, ptr, ptr, ptr, ptr, ptr, ptr, ptr, ptr, ptr, ptr, ptr, ptr, ptr, ptr, ptr, ptr, ptr, ptr, ptr, ptr, ptr, ptr, ptr, ptr, ptr, ptr, ptr, ptr, ptr, ptr, ptr, ptr, ptr, ptr, ptr, ptr, ptr }

@.str = private unnamed_addr constant [32 x i8] c"sun/nio/ch/sctp/MessageInfoImpl\00", align 1
@smi_class = internal global ptr null, align 8
@.str.1 = private unnamed_addr constant [7 x i8] c"<init>\00", align 1
@.str.2 = private unnamed_addr constant [34 x i8] c"(ILjava/net/SocketAddress;IIZZI)V\00", align 1
@smi_ctrID = internal global ptr null, align 8
@.str.3 = private unnamed_addr constant [32 x i8] c"sun/nio/ch/sctp/ResultContainer\00", align 1
@.str.4 = private unnamed_addr constant [6 x i8] c"value\00", align 1
@.str.5 = private unnamed_addr constant [19 x i8] c"Ljava/lang/Object;\00", align 1
@src_valueID = internal global ptr null, align 8
@.str.6 = private unnamed_addr constant [5 x i8] c"type\00", align 1
@.str.7 = private unnamed_addr constant [2 x i8] c"I\00", align 1
@src_typeID = internal global ptr null, align 8
@.str.8 = private unnamed_addr constant [27 x i8] c"sun/nio/ch/sctp/SendFailed\00", align 1
@ssf_class = internal global ptr null, align 8
@.str.9 = private unnamed_addr constant [52 x i8] c"(ILjava/net/SocketAddress;Ljava/nio/ByteBuffer;II)V\00", align 1
@ssf_ctrID = internal global ptr null, align 8
@.str.10 = private unnamed_addr constant [34 x i8] c"sun/nio/ch/sctp/AssociationChange\00", align 1
@sac_class = internal global ptr null, align 8
@.str.11 = private unnamed_addr constant [8 x i8] c"(IIII)V\00", align 1
@sac_ctrID = internal global ptr null, align 8
@.str.12 = private unnamed_addr constant [31 x i8] c"sun/nio/ch/sctp/PeerAddrChange\00", align 1
@spc_class = internal global ptr null, align 8
@.str.13 = private unnamed_addr constant [30 x i8] c"(ILjava/net/SocketAddress;I)V\00", align 1
@spc_ctrID = internal global ptr null, align 8
@.str.14 = private unnamed_addr constant [25 x i8] c"sun/nio/ch/sctp/Shutdown\00", align 1
@ss_class = internal global ptr null, align 8
@.str.15 = private unnamed_addr constant [5 x i8] c"(I)V\00", align 1
@ss_ctrID = internal global ptr null, align 8

; Function Attrs: nounwind uwtable
define void @Java_sun_nio_ch_sctp_SctpChannelImpl_initIDs(ptr noundef %0, ptr noundef %1) #0 {
  %3 = alloca ptr, align 8
  %4 = alloca ptr, align 8
  %5 = alloca ptr, align 8
  store ptr %0, ptr %3, align 8
  store ptr %1, ptr %4, align 8
  %6 = load ptr, ptr %3, align 8
  %7 = load ptr, ptr %6, align 8
  %8 = getelementptr inbounds %struct.JNINativeInterface_, ptr %7, i32 0, i32 6
  %9 = load ptr, ptr %8, align 8
  %10 = load ptr, ptr %3, align 8
  %11 = call ptr %9(ptr noundef %10, ptr noundef @.str)
  store ptr %11, ptr %5, align 8
  br label %12

12:                                               ; preds = %2
  %13 = load ptr, ptr %5, align 8
  %14 = icmp eq ptr %13, null
  br i1 %14, label %15, label %16

15:                                               ; preds = %12
  br label %233

16:                                               ; preds = %12
  br label %17

17:                                               ; preds = %16
  %18 = load ptr, ptr %3, align 8
  %19 = load ptr, ptr %18, align 8
  %20 = getelementptr inbounds %struct.JNINativeInterface_, ptr %19, i32 0, i32 21
  %21 = load ptr, ptr %20, align 8
  %22 = load ptr, ptr %3, align 8
  %23 = load ptr, ptr %5, align 8
  %24 = call ptr %21(ptr noundef %22, ptr noundef %23)
  store ptr %24, ptr @smi_class, align 8
  br label %25

25:                                               ; preds = %17
  %26 = load ptr, ptr @smi_class, align 8
  %27 = icmp eq ptr %26, null
  br i1 %27, label %28, label %29

28:                                               ; preds = %25
  br label %233

29:                                               ; preds = %25
  br label %30

30:                                               ; preds = %29
  %31 = load ptr, ptr %3, align 8
  %32 = load ptr, ptr %31, align 8
  %33 = getelementptr inbounds %struct.JNINativeInterface_, ptr %32, i32 0, i32 33
  %34 = load ptr, ptr %33, align 8
  %35 = load ptr, ptr %3, align 8
  %36 = load ptr, ptr %5, align 8
  %37 = call ptr %34(ptr noundef %35, ptr noundef %36, ptr noundef @.str.1, ptr noundef @.str.2)
  store ptr %37, ptr @smi_ctrID, align 8
  br label %38

38:                                               ; preds = %30
  %39 = load ptr, ptr @smi_ctrID, align 8
  %40 = icmp eq ptr %39, null
  br i1 %40, label %41, label %42

41:                                               ; preds = %38
  br label %233

42:                                               ; preds = %38
  br label %43

43:                                               ; preds = %42
  %44 = load ptr, ptr %3, align 8
  %45 = load ptr, ptr %44, align 8
  %46 = getelementptr inbounds %struct.JNINativeInterface_, ptr %45, i32 0, i32 6
  %47 = load ptr, ptr %46, align 8
  %48 = load ptr, ptr %3, align 8
  %49 = call ptr %47(ptr noundef %48, ptr noundef @.str.3)
  store ptr %49, ptr %5, align 8
  br label %50

50:                                               ; preds = %43
  %51 = load ptr, ptr %5, align 8
  %52 = icmp eq ptr %51, null
  br i1 %52, label %53, label %54

53:                                               ; preds = %50
  br label %233

54:                                               ; preds = %50
  br label %55

55:                                               ; preds = %54
  %56 = load ptr, ptr %3, align 8
  %57 = load ptr, ptr %56, align 8
  %58 = getelementptr inbounds %struct.JNINativeInterface_, ptr %57, i32 0, i32 94
  %59 = load ptr, ptr %58, align 8
  %60 = load ptr, ptr %3, align 8
  %61 = load ptr, ptr %5, align 8
  %62 = call ptr %59(ptr noundef %60, ptr noundef %61, ptr noundef @.str.4, ptr noundef @.str.5)
  store ptr %62, ptr @src_valueID, align 8
  br label %63

63:                                               ; preds = %55
  %64 = load ptr, ptr @src_valueID, align 8
  %65 = icmp eq ptr %64, null
  br i1 %65, label %66, label %67

66:                                               ; preds = %63
  br label %233

67:                                               ; preds = %63
  br label %68

68:                                               ; preds = %67
  %69 = load ptr, ptr %3, align 8
  %70 = load ptr, ptr %69, align 8
  %71 = getelementptr inbounds %struct.JNINativeInterface_, ptr %70, i32 0, i32 94
  %72 = load ptr, ptr %71, align 8
  %73 = load ptr, ptr %3, align 8
  %74 = load ptr, ptr %5, align 8
  %75 = call ptr %72(ptr noundef %73, ptr noundef %74, ptr noundef @.str.6, ptr noundef @.str.7)
  store ptr %75, ptr @src_typeID, align 8
  br label %76

76:                                               ; preds = %68
  %77 = load ptr, ptr @src_typeID, align 8
  %78 = icmp eq ptr %77, null
  br i1 %78, label %79, label %80

79:                                               ; preds = %76
  br label %233

80:                                               ; preds = %76
  br label %81

81:                                               ; preds = %80
  %82 = load ptr, ptr %3, align 8
  %83 = load ptr, ptr %82, align 8
  %84 = getelementptr inbounds %struct.JNINativeInterface_, ptr %83, i32 0, i32 6
  %85 = load ptr, ptr %84, align 8
  %86 = load ptr, ptr %3, align 8
  %87 = call ptr %85(ptr noundef %86, ptr noundef @.str.8)
  store ptr %87, ptr %5, align 8
  br label %88

88:                                               ; preds = %81
  %89 = load ptr, ptr %5, align 8
  %90 = icmp eq ptr %89, null
  br i1 %90, label %91, label %92

91:                                               ; preds = %88
  br label %233

92:                                               ; preds = %88
  br label %93

93:                                               ; preds = %92
  %94 = load ptr, ptr %3, align 8
  %95 = load ptr, ptr %94, align 8
  %96 = getelementptr inbounds %struct.JNINativeInterface_, ptr %95, i32 0, i32 21
  %97 = load ptr, ptr %96, align 8
  %98 = load ptr, ptr %3, align 8
  %99 = load ptr, ptr %5, align 8
  %100 = call ptr %97(ptr noundef %98, ptr noundef %99)
  store ptr %100, ptr @ssf_class, align 8
  br label %101

101:                                              ; preds = %93
  %102 = load ptr, ptr @ssf_class, align 8
  %103 = icmp eq ptr %102, null
  br i1 %103, label %104, label %105

104:                                              ; preds = %101
  br label %233

105:                                              ; preds = %101
  br label %106

106:                                              ; preds = %105
  %107 = load ptr, ptr %3, align 8
  %108 = load ptr, ptr %107, align 8
  %109 = getelementptr inbounds %struct.JNINativeInterface_, ptr %108, i32 0, i32 33
  %110 = load ptr, ptr %109, align 8
  %111 = load ptr, ptr %3, align 8
  %112 = load ptr, ptr %5, align 8
  %113 = call ptr %110(ptr noundef %111, ptr noundef %112, ptr noundef @.str.1, ptr noundef @.str.9)
  store ptr %113, ptr @ssf_ctrID, align 8
  br label %114

114:                                              ; preds = %106
  %115 = load ptr, ptr @ssf_ctrID, align 8
  %116 = icmp eq ptr %115, null
  br i1 %116, label %117, label %118

117:                                              ; preds = %114
  br label %233

118:                                              ; preds = %114
  br label %119

119:                                              ; preds = %118
  %120 = load ptr, ptr %3, align 8
  %121 = load ptr, ptr %120, align 8
  %122 = getelementptr inbounds %struct.JNINativeInterface_, ptr %121, i32 0, i32 6
  %123 = load ptr, ptr %122, align 8
  %124 = load ptr, ptr %3, align 8
  %125 = call ptr %123(ptr noundef %124, ptr noundef @.str.10)
  store ptr %125, ptr %5, align 8
  br label %126

126:                                              ; preds = %119
  %127 = load ptr, ptr %5, align 8
  %128 = icmp eq ptr %127, null
  br i1 %128, label %129, label %130

129:                                              ; preds = %126
  br label %233

130:                                              ; preds = %126
  br label %131

131:                                              ; preds = %130
  %132 = load ptr, ptr %3, align 8
  %133 = load ptr, ptr %132, align 8
  %134 = getelementptr inbounds %struct.JNINativeInterface_, ptr %133, i32 0, i32 21
  %135 = load ptr, ptr %134, align 8
  %136 = load ptr, ptr %3, align 8
  %137 = load ptr, ptr %5, align 8
  %138 = call ptr %135(ptr noundef %136, ptr noundef %137)
  store ptr %138, ptr @sac_class, align 8
  br label %139

139:                                              ; preds = %131
  %140 = load ptr, ptr @sac_class, align 8
  %141 = icmp eq ptr %140, null
  br i1 %141, label %142, label %143

142:                                              ; preds = %139
  br label %233

143:                                              ; preds = %139
  br label %144

144:                                              ; preds = %143
  %145 = load ptr, ptr %3, align 8
  %146 = load ptr, ptr %145, align 8
  %147 = getelementptr inbounds %struct.JNINativeInterface_, ptr %146, i32 0, i32 33
  %148 = load ptr, ptr %147, align 8
  %149 = load ptr, ptr %3, align 8
  %150 = load ptr, ptr %5, align 8
  %151 = call ptr %148(ptr noundef %149, ptr noundef %150, ptr noundef @.str.1, ptr noundef @.str.11)
  store ptr %151, ptr @sac_ctrID, align 8
  br label %152

152:                                              ; preds = %144
  %153 = load ptr, ptr @sac_ctrID, align 8
  %154 = icmp eq ptr %153, null
  br i1 %154, label %155, label %156

155:                                              ; preds = %152
  br label %233

156:                                              ; preds = %152
  br label %157

157:                                              ; preds = %156
  %158 = load ptr, ptr %3, align 8
  %159 = load ptr, ptr %158, align 8
  %160 = getelementptr inbounds %struct.JNINativeInterface_, ptr %159, i32 0, i32 6
  %161 = load ptr, ptr %160, align 8
  %162 = load ptr, ptr %3, align 8
  %163 = call ptr %161(ptr noundef %162, ptr noundef @.str.12)
  store ptr %163, ptr %5, align 8
  br label %164

164:                                              ; preds = %157
  %165 = load ptr, ptr %5, align 8
  %166 = icmp eq ptr %165, null
  br i1 %166, label %167, label %168

167:                                              ; preds = %164
  br label %233

168:                                              ; preds = %164
  br label %169

169:                                              ; preds = %168
  %170 = load ptr, ptr %3, align 8
  %171 = load ptr, ptr %170, align 8
  %172 = getelementptr inbounds %struct.JNINativeInterface_, ptr %171, i32 0, i32 21
  %173 = load ptr, ptr %172, align 8
  %174 = load ptr, ptr %3, align 8
  %175 = load ptr, ptr %5, align 8
  %176 = call ptr %173(ptr noundef %174, ptr noundef %175)
  store ptr %176, ptr @spc_class, align 8
  br label %177

177:                                              ; preds = %169
  %178 = load ptr, ptr @spc_class, align 8
  %179 = icmp eq ptr %178, null
  br i1 %179, label %180, label %181

180:                                              ; preds = %177
  br label %233

181:                                              ; preds = %177
  br label %182

182:                                              ; preds = %181
  %183 = load ptr, ptr %3, align 8
  %184 = load ptr, ptr %183, align 8
  %185 = getelementptr inbounds %struct.JNINativeInterface_, ptr %184, i32 0, i32 33
  %186 = load ptr, ptr %185, align 8
  %187 = load ptr, ptr %3, align 8
  %188 = load ptr, ptr %5, align 8
  %189 = call ptr %186(ptr noundef %187, ptr noundef %188, ptr noundef @.str.1, ptr noundef @.str.13)
  store ptr %189, ptr @spc_ctrID, align 8
  br label %190

190:                                              ; preds = %182
  %191 = load ptr, ptr @spc_ctrID, align 8
  %192 = icmp eq ptr %191, null
  br i1 %192, label %193, label %194

193:                                              ; preds = %190
  br label %233

194:                                              ; preds = %190
  br label %195

195:                                              ; preds = %194
  %196 = load ptr, ptr %3, align 8
  %197 = load ptr, ptr %196, align 8
  %198 = getelementptr inbounds %struct.JNINativeInterface_, ptr %197, i32 0, i32 6
  %199 = load ptr, ptr %198, align 8
  %200 = load ptr, ptr %3, align 8
  %201 = call ptr %199(ptr noundef %200, ptr noundef @.str.14)
  store ptr %201, ptr %5, align 8
  br label %202

202:                                              ; preds = %195
  %203 = load ptr, ptr %5, align 8
  %204 = icmp eq ptr %203, null
  br i1 %204, label %205, label %206

205:                                              ; preds = %202
  br label %233

206:                                              ; preds = %202
  br label %207

207:                                              ; preds = %206
  %208 = load ptr, ptr %3, align 8
  %209 = load ptr, ptr %208, align 8
  %210 = getelementptr inbounds %struct.JNINativeInterface_, ptr %209, i32 0, i32 21
  %211 = load ptr, ptr %210, align 8
  %212 = load ptr, ptr %3, align 8
  %213 = load ptr, ptr %5, align 8
  %214 = call ptr %211(ptr noundef %212, ptr noundef %213)
  store ptr %214, ptr @ss_class, align 8
  br label %215

215:                                              ; preds = %207
  %216 = load ptr, ptr @ss_class, align 8
  %217 = icmp eq ptr %216, null
  br i1 %217, label %218, label %219

218:                                              ; preds = %215
  br label %233

219:                                              ; preds = %215
  br label %220

220:                                              ; preds = %219
  %221 = load ptr, ptr %3, align 8
  %222 = load ptr, ptr %221, align 8
  %223 = getelementptr inbounds %struct.JNINativeInterface_, ptr %222, i32 0, i32 33
  %224 = load ptr, ptr %223, align 8
  %225 = load ptr, ptr %3, align 8
  %226 = load ptr, ptr %5, align 8
  %227 = call ptr %224(ptr noundef %225, ptr noundef %226, ptr noundef @.str.1, ptr noundef @.str.15)
  store ptr %227, ptr @ss_ctrID, align 8
  br label %228

228:                                              ; preds = %220
  %229 = load ptr, ptr @ss_ctrID, align 8
  %230 = icmp eq ptr %229, null
  br i1 %230, label %231, label %232

231:                                              ; preds = %228
  br label %233

232:                                              ; preds = %228
  br label %233

233:                                              ; preds = %232, %231, %218, %205, %193, %180, %167, %155, %142, %129, %117, %104, %91, %79, %66, %53, %41, %28, %15
  ret void
}