; Function Attrs: nounwind uwtable
define void @Java_sun_nio_ch_sctp_SctpChannelImpl_initIDs(ptr noundef %0, ptr nocapture noundef readnone %1) local_unnamed_addr #0 {
  %3 = load ptr, ptr %0, align 8
  %4 = getelementptr inbounds i8, ptr %3, i64 48
  %5 = load ptr, ptr %4, align 8
  %6 = tail call ptr %5(ptr noundef nonnull %0, ptr noundef nonnull @.str) #11
  %7 = icmp eq ptr %6, null
  br i1 %7, label %109, label %8

8:                                                ; preds = %2
  %9 = load ptr, ptr %0, align 8
  %10 = getelementptr inbounds i8, ptr %9, i64 168
  %11 = load ptr, ptr %10, align 8
  %12 = tail call ptr %11(ptr noundef nonnull %0, ptr noundef nonnull %6) #11
  store ptr %12, ptr @smi_class, align 8
  %13 = icmp eq ptr %12, null
  br i1 %13, label %109, label %14

14:                                               ; preds = %8
  %15 = load ptr, ptr %0, align 8
  %16 = getelementptr inbounds i8, ptr %15, i64 264
  %17 = load ptr, ptr %16, align 8
  %18 = tail call ptr %17(ptr noundef nonnull %0, ptr noundef nonnull %6, ptr noundef nonnull @.str.1, ptr noundef nonnull @.str.2) #11
  store ptr %18, ptr @smi_ctrID, align 8
  %19 = icmp eq ptr %18, null
  br i1 %19, label %109, label %20

20:                                               ; preds = %14
  %21 = load ptr, ptr %0, align 8
  %22 = getelementptr inbounds i8, ptr %21, i64 48
  %23 = load ptr, ptr %22, align 8
  %24 = tail call ptr %23(ptr noundef nonnull %0, ptr noundef nonnull @.str.3) #11
  %25 = icmp eq ptr %24, null
  br i1 %25, label %109, label %26

26:                                               ; preds = %20
  %27 = load ptr, ptr %0, align 8
  %28 = getelementptr inbounds i8, ptr %27, i64 752
  %29 = load ptr, ptr %28, align 8
  %30 = tail call ptr %29(ptr noundef nonnull %0, ptr noundef nonnull %24, ptr noundef nonnull @.str.4, ptr noundef nonnull @.str.5) #11
  store ptr %30, ptr @src_valueID, align 8
  %31 = icmp eq ptr %30, null
  br i1 %31, label %109, label %32

32:                                               ; preds = %26
  %33 = load ptr, ptr %0, align 8
  %34 = getelementptr inbounds i8, ptr %33, i64 752
  %35 = load ptr, ptr %34, align 8
  %36 = tail call ptr %35(ptr noundef nonnull %0, ptr noundef nonnull %24, ptr noundef nonnull @.str.6, ptr noundef nonnull @.str.7) #11
  store ptr %36, ptr @src_typeID, align 8
  %37 = icmp eq ptr %36, null
  br i1 %37, label %109, label %38

38:                                               ; preds = %32
  %39 = load ptr, ptr %0, align 8
  %40 = getelementptr inbounds i8, ptr %39, i64 48
  %41 = load ptr, ptr %40, align 8
  %42 = tail call ptr %41(ptr noundef nonnull %0, ptr noundef nonnull @.str.8) #11
  %43 = icmp eq ptr %42, null
  br i1 %43, label %109, label %44

44:                                               ; preds = %38
  %45 = load ptr, ptr %0, align 8
  %46 = getelementptr inbounds i8, ptr %45, i64 168
  %47 = load ptr, ptr %46, align 8
  %48 = tail call ptr %47(ptr noundef nonnull %0, ptr noundef nonnull %42) #11
  store ptr %48, ptr @ssf_class, align 8
  %49 = icmp eq ptr %48, null
  br i1 %49, label %109, label %50

50:                                               ; preds = %44
  %51 = load ptr, ptr %0, align 8
  %52 = getelementptr inbounds i8, ptr %51, i64 264
  %53 = load ptr, ptr %52, align 8
  %54 = tail call ptr %53(ptr noundef nonnull %0, ptr noundef nonnull %42, ptr noundef nonnull @.str.1, ptr noundef nonnull @.str.9) #11
  store ptr %54, ptr @ssf_ctrID, align 8
  %55 = icmp eq ptr %54, null
  br i1 %55, label %109, label %56

56:                                               ; preds = %50
  %57 = load ptr, ptr %0, align 8
  %58 = getelementptr inbounds i8, ptr %57, i64 48
  %59 = load ptr, ptr %58, align 8
  %60 = tail call ptr %59(ptr noundef nonnull %0, ptr noundef nonnull @.str.10) #11
  %61 = icmp eq ptr %60, null
  br i1 %61, label %109, label %62

62:                                               ; preds = %56
  %63 = load ptr, ptr %0, align 8
  %64 = getelementptr inbounds i8, ptr %63, i64 168
  %65 = load ptr, ptr %64, align 8
  %66 = tail call ptr %65(ptr noundef nonnull %0, ptr noundef nonnull %60) #11
  store ptr %66, ptr @sac_class, align 8
  %67 = icmp eq ptr %66, null
  br i1 %67, label %109, label %68

68:                                               ; preds = %62
  %69 = load ptr, ptr %0, align 8
  %70 = getelementptr inbounds i8, ptr %69, i64 264
  %71 = load ptr, ptr %70, align 8
  %72 = tail call ptr %71(ptr noundef nonnull %0, ptr noundef nonnull %60, ptr noundef nonnull @.str.1, ptr noundef nonnull @.str.11) #11
  store ptr %72, ptr @sac_ctrID, align 8
  %73 = icmp eq ptr %72, null
  br i1 %73, label %109, label %74

74:                                               ; preds = %68
  %75 = load ptr, ptr %0, align 8
  %76 = getelementptr inbounds i8, ptr %75, i64 48
  %77 = load ptr, ptr %76, align 8
  %78 = tail call ptr %77(ptr noundef nonnull %0, ptr noundef nonnull @.str.12) #11
  %79 = icmp eq ptr %78, null
  br i1 %79, label %109, label %80

80:                                               ; preds = %74
  %81 = load ptr, ptr %0, align 8
  %82 = getelementptr inbounds i8, ptr %81, i64 168
  %83 = load ptr, ptr %82, align 8
  %84 = tail call ptr %83(ptr noundef nonnull %0, ptr noundef nonnull %78) #11
  store ptr %84, ptr @spc_class, align 8
  %85 = icmp eq ptr %84, null
  br i1 %85, label %109, label %86

86:                                               ; preds = %80
  %87 = load ptr, ptr %0, align 8
  %88 = getelementptr inbounds i8, ptr %87, i64 264
  %89 = load ptr, ptr %88, align 8
  %90 = tail call ptr %89(ptr noundef nonnull %0, ptr noundef nonnull %78, ptr noundef nonnull @.str.1, ptr noundef nonnull @.str.13) #11
  store ptr %90, ptr @spc_ctrID, align 8
  %91 = icmp eq ptr %90, null
  br i1 %91, label %109, label %92

92:                                               ; preds = %86
  %93 = load ptr, ptr %0, align 8
  %94 = getelementptr inbounds i8, ptr %93, i64 48
  %95 = load ptr, ptr %94, align 8
  %96 = tail call ptr %95(ptr noundef nonnull %0, ptr noundef nonnull @.str.14) #11
  %97 = icmp eq ptr %96, null
  br i1 %97, label %109, label %98

98:                                               ; preds = %92
  %99 = load ptr, ptr %0, align 8
  %100 = getelementptr inbounds i8, ptr %99, i64 168
  %101 = load ptr, ptr %100, align 8
  %102 = tail call ptr %101(ptr noundef nonnull %0, ptr noundef nonnull %96) #11
  store ptr %102, ptr @ss_class, align 8
  %103 = icmp eq ptr %102, null
  br i1 %103, label %109, label %104

104:                                              ; preds = %98
  %105 = load ptr, ptr %0, align 8
  %106 = getelementptr inbounds i8, ptr %105, i64 264
  %107 = load ptr, ptr %106, align 8
  %108 = tail call ptr %107(ptr noundef nonnull %0, ptr noundef nonnull %96, ptr noundef nonnull @.str.1, ptr noundef nonnull @.str.15) #11
  store ptr %108, ptr @ss_ctrID, align 8
  br label %109

109:                                              ; preds = %104, %98, %92, %86, %80, %74, %68, %62, %56, %50, %44, %38, %32, %26, %20, %14, %8, %2
  ret void
}